; Function Attrs: mustprogress nounwind uwtable
define dso_local noundef nonnull align 8 dereferenceable(8) ptr @_ZN4llvm19TargetTransformInfoaSEOS0_(ptr noundef nonnull returned align 8 dereferenceable(8) %0, ptr nocapture noundef nonnull align 8 dereferenceable(8) %1) local_unnamed_addr #0 align 2 {
  %3 = load ptr, ptr %1, align 8
  store ptr null, ptr %1, align 8
  %4 = load ptr, ptr %0, align 8
  store ptr %3, ptr %0, align 8
  %.not.i.i.i.i = icmp eq ptr %4, null
  br i1 %.not.i.i.i.i, label %_ZNSt10unique_ptrIN4llvm19TargetTransformInfo7ConceptESt14default_deleteIS2_EEaSEOS5_.exit, label %_ZNKSt14default_deleteIN4llvm19TargetTransformInfo7ConceptEEclEPS2_.exit.i.i.i.i

_ZNKSt14default_deleteIN4llvm19TargetTransformInfo7ConceptEEclEPS2_.exit.i.i.i.i: ; preds = %2
  %5 = load ptr, ptr %4, align 8
  %6 = getelementptr inbounds i8, ptr %5, i64 8
  %7 = load ptr, ptr %6, align 8
  tail call void %7(ptr noundef nonnull align 8 dereferenceable(8) %4) #25
  br label %_ZNSt10unique_ptrIN4llvm19TargetTransformInfo7ConceptESt14default_deleteIS2_EEaSEOS5_.exit

_ZNSt10unique_ptrIN4llvm19TargetTransformInfo7ConceptESt14default_deleteIS2_EEaSEOS5_.exit: ; preds = %2, %_ZNKSt14default_deleteIN4llvm19TargetTransformInfo7ConceptEEclEPS2_.exit.i.i.i.i
  ret ptr %0
}